; Function Attrs: nounwind uwtable
define internal fastcc i32 @emit_indname_block(ptr noundef %0, i64 noundef %1, ptr noundef readonly captures(none) %2, i32 noundef %3) unnamed_addr #0 {
  %5 = alloca [16 x i8], align 16
  call void @llvm.lifetime.start.p0(i64 16, ptr nonnull %5) #12
  %6 = icmp eq i32 %3, 0
  %7 = add i64 %1, 1
  %notmask.i = select i1 %6, i32 -64, i32 -16
  %8 = xor i32 %notmask.i, -1
  %9 = zext nneg i32 %8 to i64
  %10 = icmp ult i64 %7, %9
  br i1 %10, label %count_encoded_length.exit.thread, label %11

11:                                               ; preds = %4
  %12 = sub nuw i64 %7, %9
  %13 = icmp ugt i64 %12, 127
  br i1 %13, label %.lr.ph.i, label %count_encoded_length.exit.thread

.lr.ph.i:                                         ; preds = %11, %.lr.ph.i
  %.016.i = phi i64 [ %15, %.lr.ph.i ], [ 1, %11 ]
  %.01215.i = phi i64 [ %14, %.lr.ph.i ], [ %12, %11 ]
  %14 = lshr i64 %.01215.i, 7
  %15 = add nuw nsw i64 %.016.i, 1
  %16 = icmp ugt i64 %.01215.i, 16383
  br i1 %16, label %.lr.ph.i, label %count_encoded_length.exit, !llvm.loop !79

count_encoded_length.exit:                        ; preds = %.lr.ph.i
  %17 = add nuw nsw i64 %.016.i, 2
  %18 = icmp samesign ugt i64 %.016.i, 14
  br i1 %18, label %43, label %count_encoded_length.exit.thread

count_encoded_length.exit.thread:                 ; preds = %11, %4, %count_encoded_length.exit
  %.011.i28 = phi i64 [ %17, %count_encoded_length.exit ], [ 2, %11 ], [ 1, %4 ]
  %19 = icmp ult i32 %3, 3
  br i1 %19, label %switch.lookup, label %20

20:                                               ; preds = %count_encoded_length.exit.thread
  tail call void @__assert_fail(ptr noundef nonnull @.str.132, ptr noundef nonnull @.str.1, i32 noundef 1038, ptr noundef nonnull @__PRETTY_FUNCTION__.pack_first_byte) #13
  unreachable

switch.lookup:                                    ; preds = %count_encoded_length.exit.thread
  %switch.cast = trunc nuw i32 %3 to i24
  %switch.shiftamt = shl nuw nsw i24 %switch.cast, 3
  %switch.downshift = lshr i24 1048640, %switch.shiftamt
  %switch.masked = trunc i24 %switch.downshift to i8
  %21 = trunc nsw i32 %notmask.i to i8
  %22 = and i8 %switch.masked, %21
  br i1 %10, label %23, label %26

23:                                               ; preds = %switch.lookup
  %24 = trunc i64 %7 to i8
  %25 = or i8 %22, %24
  store i8 %25, ptr %5, align 16, !tbaa !11
  br label %encode_length.exit

26:                                               ; preds = %switch.lookup
  %27 = trunc nuw nsw i32 %8 to i8
  %28 = or i8 %22, %27
  store i8 %28, ptr %5, align 16, !tbaa !11
  %29 = sub nuw i64 %7, %9
  %.02428.i = getelementptr inbounds nuw i8, ptr %5, i64 1
  %30 = icmp ugt i64 %29, 127
  br i1 %30, label %.lr.ph.i26, label %._crit_edge.i

.lr.ph.i26:                                       ; preds = %26, %.lr.ph.i26
  %.02430.i = phi ptr [ %.024.i, %.lr.ph.i26 ], [ %.02428.i, %26 ]
  %.02529.i = phi i64 [ %33, %.lr.ph.i26 ], [ %29, %26 ]
  %31 = trunc i64 %.02529.i to i8
  %32 = or i8 %31, -128
  store i8 %32, ptr %.02430.i, align 1, !tbaa !11
  %33 = lshr i64 %.02529.i, 7
  %.024.i = getelementptr inbounds nuw i8, ptr %.02430.i, i64 1
  %34 = icmp ugt i64 %.02529.i, 16383
  br i1 %34, label %.lr.ph.i26, label %._crit_edge.i, !llvm.loop !80

._crit_edge.i:                                    ; preds = %.lr.ph.i26, %26
  %.025.lcssa.i = phi i64 [ %29, %26 ], [ %33, %.lr.ph.i26 ]
  %.024.lcssa.i = phi ptr [ %.02428.i, %26 ], [ %.024.i, %.lr.ph.i26 ]
  %35 = trunc nuw nsw i64 %.025.lcssa.i to i8
  store i8 %35, ptr %.024.lcssa.i, align 1, !tbaa !11
  br label %encode_length.exit

encode_length.exit:                               ; preds = %23, %._crit_edge.i
  %36 = call i32 @nghttp2_bufs_add(ptr noundef %0, ptr noundef nonnull %5, i64 noundef %.011.i28) #12
  %.not = icmp eq i32 %36, 0
  br i1 %.not, label %37, label %43

37:                                               ; preds = %encode_length.exit
  %38 = getelementptr inbounds nuw i8, ptr %2, i64 8
  %39 = load ptr, ptr %38, align 8, !tbaa !90
  %40 = getelementptr inbounds nuw i8, ptr %2, i64 24
  %41 = load i64, ptr %40, align 8, !tbaa !87
  %42 = call fastcc i32 @emit_string(ptr noundef %0, ptr noundef %39, i64 noundef %41)
  br label %43

43:                                               ; preds = %37, %encode_length.exit, %count_encoded_length.exit
  %.018 = phi i32 [ -523, %count_encoded_length.exit ], [ %36, %encode_length.exit ], [ %42, %37 ]
  call void @llvm.lifetime.end.p0(i64 16, ptr nonnull %5) #12
  ret i32 %.018
}